; Function Attrs: mustprogress nofree norecurse nosync nounwind willreturn memory(argmem: read) uwtable
define { ptr, i64 } @_ZNK3net17AeadBaseEncrypter14GetNoncePrefixB5cxx11Ev(ptr noundef nonnull align 8 dereferenceable(96) %0) unnamed_addr #8 align 2 {
  %2 = getelementptr inbounds nuw i8, ptr %0, i64 32
  %3 = load i64, ptr %2, align 8, !tbaa !17
  %4 = icmp eq i64 %3, 0
  %5 = getelementptr inbounds nuw i8, ptr %0, i64 72
  %spec.select = select i1 %4, ptr null, ptr %5
  %.fca.0.insert = insertvalue { ptr, i64 } poison, ptr %spec.select, 0
  %.fca.1.insert = insertvalue { ptr, i64 } %.fca.0.insert, i64 %3, 1
  ret { ptr, i64 } %.fca.1.insert
}